; Function Attrs: mustprogress uwtable
define void @_ZN11OpenImageIO6v3_1_018timed_thread_wedgeENS0_13function_viewIFviEEEiiiNS0_4spanIKiLm18446744073709551615EEE(ptr %0, i64 %1, i32 noundef %2, i32 noundef %3, i32 noundef %4, ptr noundef readonly byval(%"class.OpenImageIO::v3_1_0::span") align 8 captures(none) %5) local_unnamed_addr #6 personality ptr @__gxx_personality_v0 {
  %7 = alloca %"class.std::vector", align 8
  %8 = alloca %class.anon.7, align 1
  %9 = alloca %"class.OpenImageIO::v3_1_0::function_view.5", align 8
  %10 = alloca %class.anon.9, align 1
  call void @llvm.lifetime.start.p0(i64 1, ptr nonnull %8) #27
  %11 = ptrtoint ptr %8 to i64
  call void @llvm.lifetime.start.p0(i64 1, ptr nonnull %10) #27
  store ptr @"_ZN11OpenImageIO6v3_1_013function_viewIFvvEE11callback_fnIZNS0_18timed_thread_wedgeENS1_IFviEEEiiiNS0_4spanIKiLm18446744073709551615EEEE3$_1EEvl", ptr %9, align 8, !tbaa !97
  %12 = getelementptr inbounds nuw i8, ptr %9, i64 8
  %13 = ptrtoint ptr %10 to i64
  store i64 %13, ptr %12, align 8, !tbaa !99
  call void @_ZN11OpenImageIO6v3_1_018timed_thread_wedgeENS0_13function_viewIFviEEENS1_IFvvEEES5_PSoiiiNS0_4spanIKiLm18446744073709551615EEE(ptr dead_on_unwind nonnull writable sret(%"class.std::vector") align 8 %7, ptr %0, i64 %1, ptr nonnull @"_ZN11OpenImageIO6v3_1_013function_viewIFvvEE11callback_fnIZNS0_18timed_thread_wedgeENS1_IFviEEEiiiNS0_4spanIKiLm18446744073709551615EEEE3$_0EEvl", i64 %11, ptr noundef nonnull byval(%"class.OpenImageIO::v3_1_0::function_view.5") align 8 %9, ptr noundef nonnull @_ZSt4cout, i32 noundef %2, i32 noundef %3, i32 noundef %4, ptr noundef nonnull byval(%"class.OpenImageIO::v3_1_0::span") align 8 %5)
  %14 = load ptr, ptr %7, align 8, !tbaa !9
  %.not.i.i.i = icmp eq ptr %14, null
  br i1 %.not.i.i.i, label %_ZNSt6vectorIdSaIdEED2Ev.exit, label %15

15:                                               ; preds = %6
  %16 = getelementptr inbounds nuw i8, ptr %7, i64 16
  %17 = load ptr, ptr %16, align 8, !tbaa !12
  %18 = ptrtoint ptr %17 to i64
  %19 = ptrtoint ptr %14 to i64
  %20 = sub i64 %18, %19
  call void @_ZdlPvm(ptr noundef nonnull %14, i64 noundef %20) #28
  br label %_ZNSt6vectorIdSaIdEED2Ev.exit

_ZNSt6vectorIdSaIdEED2Ev.exit:                    ; preds = %6, %15
  call void @llvm.lifetime.end.p0(i64 1, ptr nonnull %10) #27
  call void @llvm.lifetime.end.p0(i64 1, ptr nonnull %8) #27
  ret void
}